; ModuleID = '59/60.c'
source_filename = "59/60.c"
target datalayout = "e-m:e-p270:32:32-p271:32:32-p272:64:64-i64:64-f80:128-n8:16:32:64-S128"
target triple = "x86_64-pc-linux-gnu"

@map = common dso_local global [102 x [102 x i8]] zeroinitializer, align 16
@.str = private unnamed_addr constant [3 x i8] c"%d\00", align 1
@.str.1 = private unnamed_addr constant [3 x i8] c"%s\00", align 1
@queue = common dso_local global [2 x [12901 x i32]] zeroinitializer, align 16
@num = common dso_local global [2 x i32] zeroinitializer, align 4
@.str.2 = private unnamed_addr constant [4 x i8] c"%d\0A\00", align 1

; Function Attrs: noinline nounwind uwtable
define dso_local i32 @main() #0 {
  %1 = alloca i32, align 4
  %2 = alloca i32, align 4
  %3 = alloca i32, align 4
  %4 = alloca i32, align 4
  %5 = alloca i32, align 4
  %6 = alloca i32, align 4
  %7 = alloca i32, align 4
  %8 = alloca i32, align 4
  %9 = alloca i32, align 4
  store i32 0, i32* %1, align 4
  call void @llvm.memset.p0i8.i64(i8* align 16 getelementptr inbounds ([102 x [102 x i8]], [102 x [102 x i8]]* @map, i32 0, i32 0, i32 0), i8 35, i64 10404, i1 false)
  %10 = call i32 (i8*, ...) @__isoc99_scanf(i8* getelementptr inbounds ([3 x i8], [3 x i8]* @.str, i64 0, i64 0), i32* %4)
  store i32 1, i32* %2, align 4
  br label %11

11:                                               ; preds = %55, %0
  %12 = load i32, i32* %2, align 4
  %13 = load i32, i32* %4, align 4
  %14 = icmp sle i32 %12, %13
  br i1 %14, label %15, label %58

15:                                               ; preds = %11
  %16 = load i32, i32* %2, align 4
  %17 = sext i32 %16 to i64
  %18 = getelementptr inbounds [102 x [102 x i8]], [102 x [102 x i8]]* @map, i64 0, i64 %17
  %19 = getelementptr inbounds [102 x i8], [102 x i8]* %18, i64 0, i64 1
  %20 = call i32 (i8*, ...) @__isoc99_scanf(i8* getelementptr inbounds ([3 x i8], [3 x i8]* @.str.1, i64 0, i64 0), i8* %19)
  store i32 1, i32* %3, align 4
  br label %21

21:                                               ; preds = %45, %15
  %22 = load i32, i32* %3, align 4
  %23 = load i32, i32* %4, align 4
  %24 = icmp sle i32 %22, %23
  br i1 %24, label %25, label %48

25:                                               ; preds = %21
  %26 = load i32, i32* %2, align 4
  %27 = sext i32 %26 to i64
  %28 = getelementptr inbounds [102 x [102 x i8]], [102 x [102 x i8]]* @map, i64 0, i64 %27
  %29 = load i32, i32* %3, align 4
  %30 = sext i32 %29 to i64
  %31 = getelementptr inbounds [102 x i8], [102 x i8]* %28, i64 0, i64 %30
  %32 = load i8, i8* %31, align 1
  %33 = sext i8 %32 to i32
  %34 = icmp eq i32 %33, 64
  br i1 %34, label %35, label %44

35:                                               ; preds = %25
  %36 = load i32, i32* %2, align 4
  %37 = shl i32 %36, 7
  %38 = load i32, i32* %3, align 4
  %39 = add nsw i32 %37, %38
  %40 = load i32, i32* getelementptr inbounds ([2 x i32], [2 x i32]* @num, i64 0, i64 0), align 4
  %41 = add nsw i32 %40, 1
  store i32 %41, i32* getelementptr inbounds ([2 x i32], [2 x i32]* @num, i64 0, i64 0), align 4
  %42 = sext i32 %40 to i64
  %43 = getelementptr inbounds [12901 x i32], [12901 x i32]* getelementptr inbounds ([2 x [12901 x i32]], [2 x [12901 x i32]]* @queue, i64 0, i64 0), i64 0, i64 %42
  store i32 %39, i32* %43, align 4
  br label %44

44:                                               ; preds = %35, %25
  br label %45

45:                                               ; preds = %44
  %46 = load i32, i32* %3, align 4
  %47 = add nsw i32 %46, 1
  store i32 %47, i32* %3, align 4
  br label %21

48:                                               ; preds = %21
  %49 = load i32, i32* %2, align 4
  %50 = sext i32 %49 to i64
  %51 = getelementptr inbounds [102 x [102 x i8]], [102 x [102 x i8]]* @map, i64 0, i64 %50
  %52 = load i32, i32* %3, align 4
  %53 = sext i32 %52 to i64
  %54 = getelementptr inbounds [102 x i8], [102 x i8]* %51, i64 0, i64 %53
  store i8 35, i8* %54, align 1
  br label %55

55:                                               ; preds = %48
  %56 = load i32, i32* %2, align 4
  %57 = add nsw i32 %56, 1
  store i32 %57, i32* %2, align 4
  br label %11

58:                                               ; preds = %11
  %59 = call i32 (i8*, ...) @__isoc99_scanf(i8* getelementptr inbounds ([3 x i8], [3 x i8]* @.str, i64 0, i64 0), i32* %5)
  %60 = load i32, i32* getelementptr inbounds ([2 x i32], [2 x i32]* @num, i64 0, i64 0), align 4
  store i32 %60, i32* %6, align 4
  store i32 0, i32* %3, align 4
  br label %61

61:                                               ; preds = %141, %58
  %62 = load i32, i32* %3, align 4
  %63 = load i32, i32* %5, align 4
  %64 = sub nsw i32 %63, 1
  %65 = icmp slt i32 %62, %64
  br i1 %65, label %66, label %144

66:                                               ; preds = %61
  %67 = load i32, i32* %3, align 4
  %68 = and i32 %67, 1
  store i32 %68, i32* %7, align 4
  store i32 0, i32* %2, align 4
  br label %69

69:                                               ; preds = %125, %66
  %70 = load i32, i32* %2, align 4
  %71 = load i32, i32* %7, align 4
  %72 = sext i32 %71 to i64
  %73 = getelementptr inbounds [2 x i32], [2 x i32]* @num, i64 0, i64 %72
  %74 = load i32, i32* %73, align 4
  %75 = icmp slt i32 %70, %74
  br i1 %75, label %76, label %128

76:                                               ; preds = %69
  %77 = load i32, i32* %7, align 4
  %78 = sext i32 %77 to i64
  %79 = getelementptr inbounds [2 x [12901 x i32]], [2 x [12901 x i32]]* @queue, i64 0, i64 %78
  %80 = load i32, i32* %2, align 4
  %81 = sext i32 %80 to i64
  %82 = getelementptr inbounds [12901 x i32], [12901 x i32]* %79, i64 0, i64 %81
  %83 = load i32, i32* %82, align 4
  %84 = ashr i32 %83, 7
  store i32 %84, i32* %8, align 4
  %85 = load i32, i32* %7, align 4
  %86 = sext i32 %85 to i64
  %87 = getelementptr inbounds [2 x [12901 x i32]], [2 x [12901 x i32]]* @queue, i64 0, i64 %86
  %88 = load i32, i32* %2, align 4
  %89 = sext i32 %88 to i64
  %90 = getelementptr inbounds [12901 x i32], [12901 x i32]* %87, i64 0, i64 %89
  %91 = load i32, i32* %90, align 4
  %92 = and i32 %91, 127
  store i32 %92, i32* %9, align 4
  %93 = load i32, i32* %8, align 4
  %94 = sub nsw i32 %93, 1
  %95 = load i32, i32* %9, align 4
  %96 = load i32, i32* %7, align 4
  %97 = icmp ne i32 %96, 0
  %98 = xor i1 %97, true
  %99 = zext i1 %98 to i32
  %100 = call i32 (i32, i32, i32, ...) bitcast (i32 (...)* @INFECT to i32 (i32, i32, i32, ...)*)(i32 %94, i32 %95, i32 %99)
  %101 = load i32, i32* %8, align 4
  %102 = add nsw i32 %101, 1
  %103 = load i32, i32* %9, align 4
  %104 = load i32, i32* %7, align 4
  %105 = icmp ne i32 %104, 0
  %106 = xor i1 %105, true
  %107 = zext i1 %106 to i32
  %108 = call i32 (i32, i32, i32, ...) bitcast (i32 (...)* @INFECT to i32 (i32, i32, i32, ...)*)(i32 %102, i32 %103, i32 %107)
  %109 = load i32, i32* %8, align 4
  %110 = load i32, i32* %9, align 4
  %111 = sub nsw i32 %110, 1
  %112 = load i32, i32* %7, align 4
  %113 = icmp ne i32 %112, 0
  %114 = xor i1 %113, true
  %115 = zext i1 %114 to i32
  %116 = call i32 (i32, i32, i32, ...) bitcast (i32 (...)* @INFECT to i32 (i32, i32, i32, ...)*)(i32 %109, i32 %111, i32 %115)
  %117 = load i32, i32* %8, align 4
  %118 = load i32, i32* %9, align 4
  %119 = add nsw i32 %118, 1
  %120 = load i32, i32* %7, align 4
  %121 = icmp ne i32 %120, 0
  %122 = xor i1 %121, true
  %123 = zext i1 %122 to i32
  %124 = call i32 (i32, i32, i32, ...) bitcast (i32 (...)* @INFECT to i32 (i32, i32, i32, ...)*)(i32 %117, i32 %119, i32 %123)
  br label %125

125:                                              ; preds = %76
  %126 = load i32, i32* %2, align 4
  %127 = add nsw i32 %126, 1
  store i32 %127, i32* %2, align 4
  br label %69

128:                                              ; preds = %69
  %129 = load i32, i32* %7, align 4
  %130 = sext i32 %129 to i64
  %131 = getelementptr inbounds [2 x i32], [2 x i32]* @num, i64 0, i64 %130
  store i32 0, i32* %131, align 4
  %132 = load i32, i32* %7, align 4
  %133 = icmp ne i32 %132, 0
  %134 = xor i1 %133, true
  %135 = zext i1 %134 to i32
  %136 = sext i32 %135 to i64
  %137 = getelementptr inbounds [2 x i32], [2 x i32]* @num, i64 0, i64 %136
  %138 = load i32, i32* %137, align 4
  %139 = load i32, i32* %6, align 4
  %140 = add nsw i32 %139, %138
  store i32 %140, i32* %6, align 4
  br label %141

141:                                              ; preds = %128
  %142 = load i32, i32* %3, align 4
  %143 = add nsw i32 %142, 1
  store i32 %143, i32* %3, align 4
  br label %61

144:                                              ; preds = %61
  %145 = load i32, i32* %6, align 4
  %146 = call i32 (i8*, ...) @printf(i8* getelementptr inbounds ([4 x i8], [4 x i8]* @.str.2, i64 0, i64 0), i32 %145)
  ret i32 0
}

; Function Attrs: argmemonly nounwind willreturn
declare void @llvm.memset.p0i8.i64(i8* nocapture writeonly, i8, i64, i1 immarg) #1

declare dso_local i32 @__isoc99_scanf(i8*, ...) #2

declare dso_local i32 @INFECT(...) #2

declare dso_local i32 @printf(i8*, ...) #2


!llvm.module.flags = !{!0}
!llvm.ident = !{!1}

!0 = !{i32 1, !"wchar_size", i32 4}
!1 = !{!"clang version 10.0.0-4ubuntu1 "}
